target datalayout = "e-m:e-p270:32:32-p271:32:32-p272:64:64-i64:64-i128:128-f80:128-n8:16:32:64-S128"
target triple = "x86_64-pc-linux-gnu"

; Function Attrs: nounwind uwtable
define void @Mvc_CoverDivide(ptr noundef %0, ptr noundef %1, ptr noundef %2, ptr noundef %3) #0 {
  %5 = alloca ptr, align 8
  %6 = alloca ptr, align 8
  %7 = alloca ptr, align 8
  %8 = alloca ptr, align 8
  store ptr %0, ptr %5, align 8
  store ptr %1, ptr %6, align 8
  store ptr %2, ptr %7, align 8
  store ptr %3, ptr %8, align 8
  %9 = load ptr, ptr %5, align 8
  %10 = call i32 @Mvc_CoverReadCubeNum(ptr noundef %9)
  %11 = load ptr, ptr %6, align 8
  %12 = call i32 @Mvc_CoverReadCubeNum(ptr noundef %11)
  %13 = icmp slt i32 %10, %12
  br i1 %13, label %14, label %17

14:                                               ; preds = %4
  %15 = load ptr, ptr %7, align 8
  store ptr null, ptr %15, align 8
  %16 = load ptr, ptr %8, align 8
  store ptr null, ptr %16, align 8
  br label %30

17:                                               ; preds = %4
  %18 = load ptr, ptr %5, align 8
  %19 = load ptr, ptr %6, align 8
  %20 = call i32 @Mvc_CoverCheckSuppContainment(ptr noundef %18, ptr noundef %19)
  %21 = icmp ne i32 %20, 0
  br i1 %21, label %25, label %22

22:                                               ; preds = %17
  %23 = load ptr, ptr %7, align 8
  store ptr null, ptr %23, align 8
  %24 = load ptr, ptr %8, align 8
  store ptr null, ptr %24, align 8
  br label %30

25:                                               ; preds = %17
  %26 = load ptr, ptr %5, align 8
  %27 = load ptr, ptr %6, align 8
  %28 = load ptr, ptr %7, align 8
  %29 = load ptr, ptr %8, align 8
  call void @Mvc_CoverDivideInternal(ptr noundef %26, ptr noundef %27, ptr noundef %28, ptr noundef %29)
  br label %30

30:                                               ; preds = %25, %22, %14
  ret void
}