; Function Attrs: nounwind uwtable
define void @Mvc_CoverDivide(ptr noundef %0, ptr noundef %1, ptr noundef writeonly captures(none) %2, ptr noundef writeonly captures(none) %3) local_unnamed_addr #0 {
  %5 = tail call i32 @Mvc_CoverReadCubeNum(ptr noundef %0) #4
  %6 = tail call i32 @Mvc_CoverReadCubeNum(ptr noundef %1) #4
  %7 = icmp slt i32 %5, %6
  br i1 %7, label %8, label %9

8:                                                ; preds = %4
  store ptr null, ptr %2, align 8
  store ptr null, ptr %3, align 8
  br label %13

9:                                                ; preds = %4
  %10 = tail call i32 @Mvc_CoverCheckSuppContainment(ptr noundef %0, ptr noundef %1) #4
  %.not = icmp eq i32 %10, 0
  br i1 %.not, label %11, label %12

11:                                               ; preds = %9
  store ptr null, ptr %2, align 8
  store ptr null, ptr %3, align 8
  br label %13

12:                                               ; preds = %9
  tail call void @Mvc_CoverDivideInternal(ptr noundef %0, ptr noundef %1, ptr noundef %2, ptr noundef %3)
  br label %13

13:                                               ; preds = %12, %11, %8
  ret void
}